; ModuleID = 'bench/linux/original/time.ll'
source_filename = "bench/linux/original/time.ll"
target datalayout = "e-m:e-p270:32:32-p271:32:32-p272:64:64-i64:64-i128:128-f80:128-n8:16:32:64-S128"
target triple = "x86_64-unknown-linux-gnu"

module asm ".section \22.export_symbol\22,\22a\22 ; __export_symbol_profile_pc: ; .asciz \22\22 ; .asciz \22\22 ; .balign 8 ; .quad profile_pc ; .previous"

%struct.x86_init_ops = type { %struct.x86_init_resources, %struct.x86_init_mpparse, %struct.x86_init_irqs, %struct.x86_init_oem, %struct.x86_init_paging, %struct.x86_init_timers, %struct.x86_init_iommu, %struct.x86_init_pci, %struct.x86_hyper_init, %struct.x86_init_acpi }
%struct.x86_init_resources = type { ptr, ptr, ptr }
%struct.x86_init_mpparse = type { ptr, ptr, ptr }
%struct.x86_init_irqs = type { ptr, ptr, ptr, ptr, ptr }
%struct.x86_init_oem = type { ptr, ptr }
%struct.x86_init_paging = type { ptr }
%struct.x86_init_timers = type { ptr, ptr, ptr }
%struct.x86_init_iommu = type { ptr }
%struct.x86_init_pci = type { ptr, ptr, ptr, ptr }
%struct.x86_hyper_init = type { ptr, ptr, ptr, ptr, ptr, ptr }
%struct.x86_init_acpi = type { ptr, ptr, ptr }
%struct.cpuinfo_x86 = type { i8, i8, i8, i8, i32, [5 x i32], i8, i8, i8, i32, i32, %union.anon, [16 x i8], [64 x i8], %struct.cpuinfo_topology, i32, i32, i32, i32, i32, i32, i64, i64, i16, i16, i16, i16, i8, i32, i8, i8 }
%union.anon = type { i64, [88 x i8] }
%struct.cpuinfo_topology = type { i32, i32, i32, i32, i32, i32, i32, i32, i32, i32 }

@__UNIQUE_ID___addressable_profile_pc177 = internal global ptr @profile_pc, section ".discard.addressable", align 8
@late_time_init = external dso_local local_unnamed_addr global ptr, align 8
@.str = private unnamed_addr constant [89 x i8] c"\014clocksource %s registered with invalid mask %016llx for VDSO. Disabling VDSO support.\0A\00", align 1
@.str.1 = private unnamed_addr constant [6 x i8] c"timer\00", align 1
@.str.2 = private unnamed_addr constant [45 x i8] c"\016Failed to register legacy timer interrupt\0A\00", align 1
@global_clock_event = external dso_local local_unnamed_addr global ptr, align 8
@x86_init = external dso_local local_unnamed_addr global %struct.x86_init_ops, align 8
@boot_cpu_data = external dso_local global %struct.cpuinfo_x86, align 8
@llvm.compiler.used = appending global [1 x ptr] [ptr @__UNIQUE_ID___addressable_profile_pc177], section "llvm.metadata"

; Function Attrs: fn_ret_thunk_extern nounwind null_pointer_is_valid
define dso_local i64 @profile_pc(ptr nocapture noundef readonly %0) #0 align 16 {
  %2 = getelementptr inbounds i8, ptr %0, i64 128
  %3 = load i64, ptr %2, align 8
  %4 = getelementptr inbounds i8, ptr %0, i64 136
  %5 = load i64, ptr %4, align 8
  %6 = and i64 %5, 3
  %7 = icmp eq i64 %6, 0
  br i1 %7, label %8, label %21

8:                                                ; preds = %1
  %9 = tail call i32 @in_lock_functions(i64 noundef %3) #5
  %10 = icmp eq i32 %9, 0
  br i1 %10, label %21, label %11

11:                                               ; preds = %8
  %12 = getelementptr inbounds i8, ptr %0, i64 152
  %13 = load i64, ptr %12, align 8
  %14 = inttoptr i64 %13 to ptr
  %15 = load i64, ptr %14, align 8
  %16 = icmp ult i64 %15, 4194304
  br i1 %16, label %17, label %.thread

17:                                               ; preds = %11
  %18 = getelementptr i8, ptr %14, i64 8
  %19 = load i64, ptr %18, align 8
  %20 = icmp ult i64 %19, 4194304
  br i1 %20, label %21, label %.thread

21:                                               ; preds = %17, %8, %1
  br label %.thread

.thread:                                          ; preds = %11, %21, %17
  %22 = phi i64 [ %3, %21 ], [ %19, %17 ], [ %15, %11 ]
  ret i64 %22
}

; Function Attrs: null_pointer_is_valid
declare dso_local i32 @in_lock_functions(i64 noundef) local_unnamed_addr #1

; Function Attrs: cold fn_ret_thunk_extern nounwind null_pointer_is_valid optsize
define dso_local void @hpet_time_init() local_unnamed_addr #2 section ".init.text" align 16 {
  %1 = tail call i32 @hpet_enable() #5
  %2 = icmp eq i32 %1, 0
  br i1 %2, label %3, label %5

3:                                                ; preds = %0
  %4 = tail call zeroext i1 @pit_timer_init() #5
  br i1 %4, label %5, label %6

5:                                                ; preds = %3, %0
  tail call fastcc void @setup_default_timer_irq() #6
  br label %6

6:                                                ; preds = %5, %3
  ret void
}

; Function Attrs: null_pointer_is_valid
declare dso_local i32 @hpet_enable() local_unnamed_addr #1

; Function Attrs: null_pointer_is_valid
declare dso_local zeroext i1 @pit_timer_init() local_unnamed_addr #1

; Function Attrs: cold fn_ret_thunk_extern nounwind null_pointer_is_valid optsize
define internal fastcc void @setup_default_timer_irq() unnamed_addr #2 section ".init.text" align 16 {
  %1 = tail call i32 @request_threaded_irq(i32 noundef 0, ptr noundef nonnull @timer_interrupt, ptr noundef null, i64 noundef 88576, ptr noundef nonnull @.str.1, ptr noundef null) #5
  %2 = icmp eq i32 %1, 0
  br i1 %2, label %5, label %3

3:                                                ; preds = %0
  %4 = tail call i32 (ptr, ...) @_printk(ptr noundef nonnull @.str.2) #7
  br label %5

5:                                                ; preds = %3, %0
  ret void
}

; Function Attrs: cold fn_ret_thunk_extern mustprogress nofree norecurse nosync nounwind null_pointer_is_valid optsize willreturn memory(write, argmem: none, inaccessiblemem: none)
define dso_local void @time_init() local_unnamed_addr #3 section ".init.text" align 16 {
  store ptr @x86_late_time_init, ptr @late_time_init, align 8
  ret void
}

; Function Attrs: cold fn_ret_thunk_extern nounwind null_pointer_is_valid optsize
define internal void @x86_late_time_init() #2 section ".init.text" align 16 {
  %1 = load ptr, ptr getelementptr inbounds (%struct.x86_init_ops, ptr @x86_init, i64 0, i32 2, i32 2), align 8
  tail call void %1() #5
  %2 = load ptr, ptr getelementptr inbounds (%struct.x86_init_ops, ptr @x86_init, i64 0, i32 5, i32 1), align 8
  tail call void %2() #5
  %3 = load ptr, ptr getelementptr inbounds (%struct.x86_init_ops, ptr @x86_init, i64 0, i32 2, i32 3), align 8
  tail call void %3() #5
  tail call void @tsc_init() #5
  callbr void asm sideeffect "# ALT: oldinstr2\0A661:\0A\09jmp 6f\0A662:\0A# ALT: padding2\0A.skip -((((6651f-6641f) ^ (((6651f-6641f) ^ (6652f-6642f)) & -(-((6651f-6641f) < (6652f-6642f))))) - (662b-661b)) > 0) * (((6651f-6641f) ^ (((6651f-6641f) ^ (6652f-6642f)) & -(-((6651f-6641f) < (6652f-6642f))))) - (662b-661b)), 0x90\0A663:\0A.pushsection .altinstructions,\22a\22\0A .long 661b - .\0A .long 6641f - .\0A .4byte ( 3*32+21)\0A .byte 663b-661b\0A .byte 6651f-6641f\0A .long 661b - .\0A .long 6642f - .\0A .4byte ${0:P}\0A .byte 663b-661b\0A .byte 6652f-6642f\0A.popsection\0A.pushsection .altinstr_replacement, \22ax\22\0A# ALT: replacement 1\0A6641:\0A\09jmp ${4:l}\0A6651:\0A# ALT: replacement 2\0A6642:\0A\09\0A6652:\0A.popsection\0A.pushsection .altinstr_aux,\22ax\22\0A6:\0A testb $1,${2:P} (% rip)\0A jnz ${3:l}\0A jmp ${4:l}\0A.popsection\0A", "i,i,i,!i,!i,~{dirflag},~{fpsr},~{flags}"(i16 517, i32 32, ptr nonnull getelementptr inbounds (%struct.cpuinfo_x86, ptr @boot_cpu_data, i64 0, i32 11, i32 1, i64 56)) #5
          to label %4 [label %4, label %5], !srcloc !5

4:                                                ; preds = %0, %0
  tail call void @use_tpause_delay() #7
  br label %5

5:                                                ; preds = %4, %0
  ret void
}

; Function Attrs: fn_ret_thunk_extern nounwind null_pointer_is_valid
define dso_local void @clocksource_arch_init(ptr nocapture noundef %0) local_unnamed_addr #0 align 16 {
  %2 = getelementptr inbounds i8, ptr %0, i64 80
  %3 = load i32, ptr %2, align 8
  %4 = icmp eq i32 %3, 0
  br i1 %4, label %13, label %5

5:                                                ; preds = %1
  %6 = getelementptr inbounds i8, ptr %0, i64 8
  %7 = load i64, ptr %6, align 8
  %8 = icmp eq i64 %7, -1
  br i1 %8, label %13, label %9

9:                                                ; preds = %5
  %10 = getelementptr inbounds i8, ptr %0, i64 48
  %11 = load ptr, ptr %10, align 8
  %12 = tail call i32 (ptr, ...) @_printk(ptr noundef nonnull @.str, ptr noundef %11, i64 noundef %7) #7
  store i32 0, ptr %2, align 8
  br label %13

13:                                               ; preds = %9, %5, %1
  ret void
}

; Function Attrs: cold null_pointer_is_valid
declare dso_local i32 @_printk(ptr noundef, ...) local_unnamed_addr #4

; Function Attrs: fn_ret_thunk_extern nounwind null_pointer_is_valid
define internal noundef i32 @timer_interrupt(i32 %0, ptr nocapture readnone %1) #0 align 16 {
  %3 = load ptr, ptr @global_clock_event, align 8
  %4 = load ptr, ptr %3, align 64
  tail call void %4(ptr noundef %3) #5
  ret i32 1
}

; Function Attrs: null_pointer_is_valid
declare dso_local i32 @request_threaded_irq(i32 noundef, ptr noundef, ptr noundef, i64 noundef, ptr noundef, ptr noundef) local_unnamed_addr #1

; Function Attrs: null_pointer_is_valid
declare dso_local void @tsc_init() local_unnamed_addr #1

; Function Attrs: cold null_pointer_is_valid
declare dso_local void @use_tpause_delay() local_unnamed_addr #4 section ".init.text"


!llvm.module.flags = !{!0, !1, !2, !3, !4}

!0 = !{i32 1, !"wchar_size", i32 2}
!1 = !{i32 8, !"cf-protection-branch", i32 1}
!2 = !{i32 4, !"function_return_thunk_extern", i32 1}
!3 = !{i32 4, !"indirect_branch_cs_prefix", i32 1}
!4 = !{i32 4, !"SkipRaxSetup", i32 1}
!5 = !{i64 2149338679, i64 2149338712, i64 2149338718, i64 2149338734, i64 2149338753, i64 2149338784, i64 2149339737, i64 2149338326, i64 2149339743, i64 2149339791, i64 2149339855, i64 2149339919, i64 2149339976, i64 2149340183, i64 2149340231, i64 2149340295, i64 2149340359, i64 2149340416, i64 2149338444, i64 2149338469, i64 2149340626, i64 2149340754, i64 2149340687, i64 2149340768, i64 2149340782, i64 2149340898, i64 2149340843, i64 2149340912, i64 2149338603, i64 1853100, i64 1853140, i64 1853149, i64 1853199, i64 1853220, i64 1853240}
